GAS LISTING /tmp/ccJKnJIB.s 			page 1


   1               		.file	"main.c"
   2               	__SP_H__ = 0x3e
   3               	__SP_L__ = 0x3d
   4               	__SREG__ = 0x3f
   5               	__tmp_reg__ = 0
   6               	__zero_reg__ = 1
   7               		.text
   8               	.Ltext0:
   9               		.cfi_sections	.debug_frame
  10               		.section	.text.main,"ax",@progbits
  11               	.global	main
  13               	main:
  14               	.LFB6:
  15               		.file 1 "src/main.c"
   1:src/main.c    **** #ifndef F_CPU
   2:src/main.c    **** #define F_CPU   16000000UL
   3:src/main.c    **** #endif
   4:src/main.c    **** 
   5:src/main.c    **** 
   6:src/main.c    **** #include <avr/io.h>
   7:src/main.c    **** #include <avr/interrupt.h>
   8:src/main.c    **** #include <util/delay.h>
   9:src/main.c    **** #include "soft_pwm.h"
  10:src/main.c    **** 
  11:src/main.c    **** 
  12:src/main.c    **** 
  13:src/main.c    **** #define ARDUINO_DEMO    0
  14:src/main.c    **** 
  15:src/main.c    **** #if ARDUINO_DEMO
  16:src/main.c    **** #define ARDUION_LED         PB5
  17:src/main.c    **** #define DDR_ARDUINO_LED     DDRB
  18:src/main.c    **** #define PORT_ARDUINO_LED    PORTB
  19:src/main.c    **** #else
  20:src/main.c    **** #include "soft_pwm.h"
  21:src/main.c    **** #endif
  22:src/main.c    **** 
  23:src/main.c    **** 
  24:src/main.c    **** 
  25:src/main.c    **** 
  26:src/main.c    **** 
  27:src/main.c    **** 
  28:src/main.c    **** int main(void)
  29:src/main.c    **** {
  16               		.loc 1 29 0
  17               		.cfi_startproc
  18               	/* prologue: function */
  19               	/* frame size = 0 */
  20               	/* stack size = 0 */
  21               	.L__stack_usage = 0
  30:src/main.c    **** 
  31:src/main.c    **** #if ARDUINO_DEMO
  32:src/main.c    ****     DDR_ARDUINO_LED |= (1 << ARDUION_LED);
  33:src/main.c    ****     while(1) {
  34:src/main.c    ****         PORT_ARDUINO_LED |= (1 << ARDUION_LED);
  35:src/main.c    ****         _delay_ms(1000);
  36:src/main.c    ****         PORT_ARDUINO_LED &= ~(1 << ARDUION_LED);
  37:src/main.c    ****         _delay_ms(1000);
GAS LISTING /tmp/ccJKnJIB.s 			page 2


  38:src/main.c    ****     }
  39:src/main.c    **** #else
  40:src/main.c    ****     // spwm_en_state = 0xffff;
  41:src/main.c    ****     spwm_init(0x0001);
  22               		.loc 1 41 0
  23 0000 81E0      		ldi r24,lo8(1)
  24 0002 90E0      		ldi r25,0
  25 0004 0E94 0000 		call spwm_init
  26               	.LVL0:
  42:src/main.c    ****     spwm_set_ch(0, 127);
  27               		.loc 1 42 0
  28 0008 E0E0      		ldi r30,lo8(spwm_duty_cycle_buff)
  29 000a F0E0      		ldi r31,hi8(spwm_duty_cycle_buff)
  30 000c 8FE7      		ldi r24,lo8(127)
  31 000e 8083      		st Z,r24
  43:src/main.c    ****     spwm_set_ch(1, 24);
  32               		.loc 1 43 0
  33 0010 88E1      		ldi r24,lo8(24)
  34 0012 8183      		std Z+1,r24
  44:src/main.c    ****     spwm_set_ch(2, 78);
  35               		.loc 1 44 0
  36 0014 8EE4      		ldi r24,lo8(78)
  37 0016 8283      		std Z+2,r24
  45:src/main.c    ****     spwm_set_ch(3, 200);
  38               		.loc 1 45 0
  39 0018 88EC      		ldi r24,lo8(-56)
  40 001a 8383      		std Z+3,r24
  46:src/main.c    ****     spwm_set_ch(4, 180);
  41               		.loc 1 46 0
  42 001c 84EB      		ldi r24,lo8(-76)
  43 001e 8483      		std Z+4,r24
  47:src/main.c    ****     spwm_set_ch(5, 128);
  44               		.loc 1 47 0
  45 0020 80E8      		ldi r24,lo8(-128)
  46 0022 8583      		std Z+5,r24
  48:src/main.c    ****     spwm_set_ch(6, 54);
  47               		.loc 1 48 0
  48 0024 96E3      		ldi r25,lo8(54)
  49 0026 9683      		std Z+6,r25
  49:src/main.c    ****     spwm_set_ch(7, 90);
  50               		.loc 1 49 0
  51 0028 9AE5      		ldi r25,lo8(90)
  52 002a 9783      		std Z+7,r25
  50:src/main.c    ****     spwm_set_ch(8, 0);
  53               		.loc 1 50 0
  54 002c 1086      		std Z+8,__zero_reg__
  51:src/main.c    ****     spwm_set_ch(9, 234);
  55               		.loc 1 51 0
  56 002e 9AEE      		ldi r25,lo8(-22)
  57 0030 9187      		std Z+9,r25
  52:src/main.c    ****     spwm_set_ch(10, 255);
  58               		.loc 1 52 0
  59 0032 9FEF      		ldi r25,lo8(-1)
  60 0034 9287      		std Z+10,r25
  53:src/main.c    ****     spwm_set_ch(11, 128);
  61               		.loc 1 53 0
  62 0036 8387      		std Z+11,r24
GAS LISTING /tmp/ccJKnJIB.s 			page 3


  54:src/main.c    ****     spwm_set_ch(12, 3);
  63               		.loc 1 54 0
  64 0038 83E0      		ldi r24,lo8(3)
  65 003a 8487      		std Z+12,r24
  55:src/main.c    ****     spwm_set_ch(14, 4);
  66               		.loc 1 55 0
  67 003c 84E0      		ldi r24,lo8(4)
  68 003e 8687      		std Z+14,r24
  56:src/main.c    ****     spwm_set_ch(15, 168);
  69               		.loc 1 56 0
  70 0040 88EA      		ldi r24,lo8(-88)
  71 0042 8787      		std Z+15,r24
  72               	.L2:
  57:src/main.c    **** 
  58:src/main.c    ****     while(1) {
  59:src/main.c    ****         spwm_tick();
  73               		.loc 1 59 0 discriminator 1
  74 0044 0E94 0000 		call spwm_tick
  75               	.LVL1:
  76 0048 00C0      		rjmp .L2
  77               		.cfi_endproc
  78               	.LFE6:
  80               		.text
  81               	.Letext0:
  82               		.file 2 "inc/soft_pwm.h"
  83               		.file 3 "/usr/lib/avr/include/stdint.h"
GAS LISTING /tmp/ccJKnJIB.s 			page 4


DEFINED SYMBOLS
                            *ABS*:0000000000000000 main.c
     /tmp/ccJKnJIB.s:2      *ABS*:000000000000003e __SP_H__
     /tmp/ccJKnJIB.s:3      *ABS*:000000000000003d __SP_L__
     /tmp/ccJKnJIB.s:4      *ABS*:000000000000003f __SREG__
     /tmp/ccJKnJIB.s:5      *ABS*:0000000000000000 __tmp_reg__
     /tmp/ccJKnJIB.s:6      *ABS*:0000000000000001 __zero_reg__
     /tmp/ccJKnJIB.s:13     .text.main:0000000000000000 main

UNDEFINED SYMBOLS
spwm_init
spwm_duty_cycle_buff
spwm_tick
